; ModuleID = '36/342.c'
source_filename = "36/342.c"
target datalayout = "e-m:e-p270:32:32-p271:32:32-p272:64:64-i64:64-f80:128-n8:16:32:64-S128"
target triple = "x86_64-pc-linux-gnu"

@.str = private unnamed_addr constant [3 x i8] c"%c\00", align 1
@.str.1 = private unnamed_addr constant [3 x i8] c"%s\00", align 1
@.str.2 = private unnamed_addr constant [3 x i8] c"NO\00", align 1
@.str.3 = private unnamed_addr constant [4 x i8] c"YES\00", align 1

; Function Attrs: noinline nounwind uwtable
define dso_local i32 @main() #0 {
  %1 = alloca i32, align 4
  %2 = alloca i32, align 4
  %3 = alloca i32, align 4
  %4 = alloca i32, align 4
  %5 = alloca i32, align 4
  %6 = alloca i32, align 4
  %7 = alloca i32, align 4
  %8 = alloca [10 x i8], align 1
  %9 = alloca [10 x i8], align 1
  store i32 0, i32* %1, align 4
  %10 = bitcast [10 x i8]* %8 to i8*
  call void @llvm.memset.p0i8.i64(i8* align 1 %10, i8 0, i64 10, i1 false)
  %11 = bitcast [10 x i8]* %9 to i8*
  call void @llvm.memset.p0i8.i64(i8* align 1 %11, i8 0, i64 10, i1 false)
  store i32 0, i32* %3, align 4
  br label %12

12:                                               ; preds = %31, %0
  %13 = load i32, i32* %3, align 4
  %14 = icmp slt i32 %13, 10
  br i1 %14, label %15, label %34

15:                                               ; preds = %12
  %16 = load i32, i32* %3, align 4
  %17 = sext i32 %16 to i64
  %18 = getelementptr inbounds [10 x i8], [10 x i8]* %8, i64 0, i64 %17
  %19 = call i32 (i8*, ...) @__isoc99_scanf(i8* getelementptr inbounds ([3 x i8], [3 x i8]* @.str, i64 0, i64 0), i8* %18)
  %20 = load i32, i32* %3, align 4
  %21 = sext i32 %20 to i64
  %22 = getelementptr inbounds [10 x i8], [10 x i8]* %8, i64 0, i64 %21
  %23 = load i8, i8* %22, align 1
  %24 = sext i8 %23 to i32
  %25 = icmp eq i32 %24, 32
  br i1 %25, label %26, label %30

26:                                               ; preds = %15
  %27 = load i32, i32* %3, align 4
  %28 = sext i32 %27 to i64
  %29 = getelementptr inbounds [10 x i8], [10 x i8]* %8, i64 0, i64 %28
  store i8 0, i8* %29, align 1
  br label %34

30:                                               ; preds = %15
  br label %31

31:                                               ; preds = %30
  %32 = load i32, i32* %3, align 4
  %33 = add nsw i32 %32, 1
  store i32 %33, i32* %3, align 4
  br label %12

34:                                               ; preds = %26, %12
  %35 = getelementptr inbounds [10 x i8], [10 x i8]* %9, i64 0, i64 0
  %36 = call i32 (i8*, ...) @__isoc99_scanf(i8* getelementptr inbounds ([3 x i8], [3 x i8]* @.str.1, i64 0, i64 0), i8* %35)
  %37 = getelementptr inbounds [10 x i8], [10 x i8]* %8, i64 0, i64 0
  %38 = call i64 @strlen(i8* %37) #4
  %39 = trunc i64 %38 to i32
  store i32 %39, i32* %2, align 4
  %40 = getelementptr inbounds [10 x i8], [10 x i8]* %9, i64 0, i64 0
  %41 = call i64 @strlen(i8* %40) #4
  %42 = trunc i64 %41 to i32
  store i32 %42, i32* %5, align 4
  %43 = load i32, i32* %5, align 4
  %44 = load i32, i32* %2, align 4
  %45 = icmp ne i32 %43, %44
  br i1 %45, label %46, label %48

46:                                               ; preds = %34
  %47 = call i32 (i8*, ...) @printf(i8* getelementptr inbounds ([3 x i8], [3 x i8]* @.str.2, i64 0, i64 0))
  br label %101

48:                                               ; preds = %34
  store i32 0, i32* %3, align 4
  br label %49

49:                                               ; preds = %83, %48
  %50 = load i32, i32* %3, align 4
  %51 = load i32, i32* %2, align 4
  %52 = icmp slt i32 %50, %51
  br i1 %52, label %53, label %86

53:                                               ; preds = %49
  store i32 0, i32* %4, align 4
  br label %54

54:                                               ; preds = %79, %53
  %55 = load i32, i32* %4, align 4
  %56 = load i32, i32* %2, align 4
  %57 = icmp slt i32 %55, %56
  br i1 %57, label %58, label %82

58:                                               ; preds = %54
  %59 = load i32, i32* %3, align 4
  %60 = sext i32 %59 to i64
  %61 = getelementptr inbounds [10 x i8], [10 x i8]* %8, i64 0, i64 %60
  %62 = load i8, i8* %61, align 1
  %63 = sext i8 %62 to i32
  %64 = load i32, i32* %4, align 4
  %65 = sext i32 %64 to i64
  %66 = getelementptr inbounds [10 x i8], [10 x i8]* %9, i64 0, i64 %65
  %67 = load i8, i8* %66, align 1
  %68 = sext i8 %67 to i32
  %69 = icmp eq i32 %63, %68
  br i1 %69, label %70, label %78

70:                                               ; preds = %58
  %71 = load i32, i32* %3, align 4
  %72 = sext i32 %71 to i64
  %73 = getelementptr inbounds [10 x i8], [10 x i8]* %8, i64 0, i64 %72
  store i8 0, i8* %73, align 1
  %74 = load i32, i32* %4, align 4
  %75 = sext i32 %74 to i64
  %76 = getelementptr inbounds [10 x i8], [10 x i8]* %9, i64 0, i64 %75
  store i8 0, i8* %76, align 1
  %77 = load i32, i32* %2, align 4
  store i32 %77, i32* %4, align 4
  br label %78

78:                                               ; preds = %70, %58
  br label %79

79:                                               ; preds = %78
  %80 = load i32, i32* %4, align 4
  %81 = add nsw i32 %80, 1
  store i32 %81, i32* %4, align 4
  br label %54

82:                                               ; preds = %54
  br label %83

83:                                               ; preds = %82
  %84 = load i32, i32* %3, align 4
  %85 = add nsw i32 %84, 1
  store i32 %85, i32* %3, align 4
  br label %49

86:                                               ; preds = %49
  %87 = getelementptr inbounds [10 x i8], [10 x i8]* %8, i64 0, i64 0
  %88 = call i32 @pd(i8* %87)
  store i32 %88, i32* %6, align 4
  %89 = getelementptr inbounds [10 x i8], [10 x i8]* %9, i64 0, i64 0
  %90 = call i32 @pd(i8* %89)
  store i32 %90, i32* %7, align 4
  %91 = load i32, i32* %6, align 4
  %92 = icmp eq i32 %91, 0
  br i1 %92, label %93, label %98

93:                                               ; preds = %86
  %94 = load i32, i32* %7, align 4
  %95 = icmp eq i32 %94, 0
  br i1 %95, label %96, label %98

96:                                               ; preds = %93
  %97 = call i32 (i8*, ...) @printf(i8* getelementptr inbounds ([4 x i8], [4 x i8]* @.str.3, i64 0, i64 0))
  br label %100

98:                                               ; preds = %93, %86
  %99 = call i32 (i8*, ...) @printf(i8* getelementptr inbounds ([3 x i8], [3 x i8]* @.str.2, i64 0, i64 0))
  br label %100

100:                                              ; preds = %98, %96
  br label %101

101:                                              ; preds = %100, %46
  ret i32 0
}

; Function Attrs: argmemonly nounwind willreturn
declare void @llvm.memset.p0i8.i64(i8* nocapture writeonly, i8, i64, i1 immarg) #1

declare dso_local i32 @__isoc99_scanf(i8*, ...) #2

; Function Attrs: nounwind readonly
declare dso_local i64 @strlen(i8*) #3

declare dso_local i32 @printf(i8*, ...) #2

; Function Attrs: noinline nounwind uwtable
define dso_local i32 @pd(i8* %0) #0 {
  %2 = alloca i8*, align 8
  %3 = alloca i32, align 4
  %4 = alloca i32, align 4
  store i8* %0, i8** %2, align 8
  store i32 0, i32* %4, align 4
  store i32 0, i32* %3, align 4
  br label %5

5:                                                ; preds = %18, %1
  %6 = load i32, i32* %3, align 4
  %7 = icmp slt i32 %6, 10
  br i1 %7, label %8, label %21

8:                                                ; preds = %5
  %9 = load i8*, i8** %2, align 8
  %10 = load i32, i32* %3, align 4
  %11 = sext i32 %10 to i64
  %12 = getelementptr inbounds i8, i8* %9, i64 %11
  %13 = load i8, i8* %12, align 1
  %14 = sext i8 %13 to i32
  %15 = icmp ne i32 %14, 0
  br i1 %15, label %16, label %17

16:                                               ; preds = %8
  store i32 1, i32* %4, align 4
  br label %21

17:                                               ; preds = %8
  br label %18

18:                                               ; preds = %17
  %19 = load i32, i32* %3, align 4
  %20 = add nsw i32 %19, 1
  store i32 %20, i32* %3, align 4
  br label %5

21:                                               ; preds = %16, %5
  %22 = load i32, i32* %4, align 4
  ret i32 %22
}


!llvm.module.flags = !{!0}
!llvm.ident = !{!1}

!0 = !{i32 1, !"wchar_size", i32 4}
!1 = !{!"clang version 10.0.0-4ubuntu1 "}
